target datalayout = "e-m:e-p270:32:32-p271:32:32-p272:64:64-i64:64-i128:128-f80:128-n8:16:32:64-S128"
target triple = "x86_64-pc-linux-gnu"

%struct.AVChannelLayout = type { i32, i32, %union.anon.1, ptr }
%union.anon.1 = type { i64 }
%struct.AVRational = type { i32, i32 }
%struct.FillBordersContext = type { ptr, i32, i32, i32, i32, i32, i32, i32, [4 x %struct.Borders], [4 x i32], [4 x i32], [4 x i8], [4 x i8], [4 x i8], ptr }
%struct.Borders = type { i32, i32, i32, i32 }
%struct.AVFrame = type { [8 x ptr], [8 x i32], ptr, i32, i32, i32, i32, i32, %struct.AVRational, i64, i64, %struct.AVRational, i32, ptr, i32, i32, [8 x ptr], ptr, i32, ptr, i32, i32, i32, i32, i32, i32, i32, i64, ptr, i32, ptr, ptr, i64, i64, i64, i64, ptr, %struct.AVChannelLayout, i64 }

; Function Attrs: nounwind uwtable
define internal void @smear_borders8(ptr noundef %0, ptr noundef %1) #0 {
  %3 = alloca ptr, align 8
  %4 = alloca ptr, align 8
  %5 = alloca i32, align 4
  %6 = alloca i32, align 4
  %7 = alloca ptr, align 8
  %8 = alloca i64, align 8
  store ptr %0, ptr %3, align 8, !tbaa !37
  store ptr %1, ptr %4, align 8, !tbaa !26
  call void @llvm.lifetime.start.p0(i64 4, ptr %5) #8
  call void @llvm.lifetime.start.p0(i64 4, ptr %6) #8
  store i32 0, ptr %5, align 4, !tbaa !11
  br label %9

9:                                                ; preds = %251, %2
  %10 = load i32, ptr %5, align 4, !tbaa !11
  %11 = load ptr, ptr %3, align 8, !tbaa !37
  %12 = getelementptr inbounds nuw %struct.FillBordersContext, ptr %11, i32 0, i32 6
  %13 = load i32, ptr %12, align 4, !tbaa !48
  %14 = icmp slt i32 %10, %13
  br i1 %14, label %15, label %254

15:                                               ; preds = %9
  call void @llvm.lifetime.start.p0(i64 8, ptr %7) #8
  %16 = load ptr, ptr %4, align 8, !tbaa !26
  %17 = getelementptr inbounds nuw %struct.AVFrame, ptr %16, i32 0, i32 0
  %18 = load i32, ptr %5, align 4, !tbaa !11
  %19 = sext i32 %18 to i64
  %20 = getelementptr inbounds [8 x ptr], ptr %17, i64 0, i64 %19
  %21 = load ptr, ptr %20, align 8, !tbaa !9
  store ptr %21, ptr %7, align 8, !tbaa !9
  call void @llvm.lifetime.start.p0(i64 8, ptr %8) #8
  %22 = load ptr, ptr %4, align 8, !tbaa !26
  %23 = getelementptr inbounds nuw %struct.AVFrame, ptr %22, i32 0, i32 1
  %24 = load i32, ptr %5, align 4, !tbaa !11
  %25 = sext i32 %24 to i64
  %26 = getelementptr inbounds [8 x i32], ptr %23, i64 0, i64 %25
  %27 = load i32, ptr %26, align 4, !tbaa !11
  %28 = sext i32 %27 to i64
  store i64 %28, ptr %8, align 8, !tbaa !70
  %29 = load ptr, ptr %3, align 8, !tbaa !37
  %30 = getelementptr inbounds nuw %struct.FillBordersContext, ptr %29, i32 0, i32 8
  %31 = load i32, ptr %5, align 4, !tbaa !11
  %32 = sext i32 %31 to i64
  %33 = getelementptr inbounds [4 x %struct.Borders], ptr %30, i64 0, i64 %32
  %34 = getelementptr inbounds nuw %struct.Borders, ptr %33, i32 0, i32 2
  %35 = load i32, ptr %34, align 4, !tbaa !63
  store i32 %35, ptr %6, align 4, !tbaa !11
  br label %36

36:                                               ; preds = %146, %15
  %37 = load i32, ptr %6, align 4, !tbaa !11
  %38 = load ptr, ptr %3, align 8, !tbaa !37
  %39 = getelementptr inbounds nuw %struct.FillBordersContext, ptr %38, i32 0, i32 10
  %40 = load i32, ptr %5, align 4, !tbaa !11
  %41 = sext i32 %40 to i64
  %42 = getelementptr inbounds [4 x i32], ptr %39, i64 0, i64 %41
  %43 = load i32, ptr %42, align 4, !tbaa !11
  %44 = load ptr, ptr %3, align 8, !tbaa !37
  %45 = getelementptr inbounds nuw %struct.FillBordersContext, ptr %44, i32 0, i32 8
  %46 = load i32, ptr %5, align 4, !tbaa !11
  %47 = sext i32 %46 to i64
  %48 = getelementptr inbounds [4 x %struct.Borders], ptr %45, i64 0, i64 %47
  %49 = getelementptr inbounds nuw %struct.Borders, ptr %48, i32 0, i32 3
  %50 = load i32, ptr %49, align 4, !tbaa !64
  %51 = sub nsw i32 %43, %50
  %52 = icmp slt i32 %37, %51
  br i1 %52, label %53, label %149

53:                                               ; preds = %36
  %54 = load ptr, ptr %7, align 8, !tbaa !9
  %55 = load i32, ptr %6, align 4, !tbaa !11
  %56 = sext i32 %55 to i64
  %57 = load i64, ptr %8, align 8, !tbaa !70
  %58 = mul nsw i64 %56, %57
  %59 = getelementptr inbounds i8, ptr %54, i64 %58
  %60 = load ptr, ptr %7, align 8, !tbaa !9
  %61 = load i32, ptr %6, align 4, !tbaa !11
  %62 = sext i32 %61 to i64
  %63 = load i64, ptr %8, align 8, !tbaa !70
  %64 = mul nsw i64 %62, %63
  %65 = getelementptr inbounds i8, ptr %60, i64 %64
  %66 = load ptr, ptr %3, align 8, !tbaa !37
  %67 = getelementptr inbounds nuw %struct.FillBordersContext, ptr %66, i32 0, i32 8
  %68 = load i32, ptr %5, align 4, !tbaa !11
  %69 = sext i32 %68 to i64
  %70 = getelementptr inbounds [4 x %struct.Borders], ptr %67, i64 0, i64 %69
  %71 = getelementptr inbounds nuw %struct.Borders, ptr %70, i32 0, i32 0
  %72 = load i32, ptr %71, align 4, !tbaa !60
  %73 = sext i32 %72 to i64
  %74 = getelementptr inbounds i8, ptr %65, i64 %73
  %75 = load i8, ptr %74, align 1, !tbaa !66
  %76 = zext i8 %75 to i32
  %77 = trunc i32 %76 to i8
  %78 = load ptr, ptr %3, align 8, !tbaa !37
  %79 = getelementptr inbounds nuw %struct.FillBordersContext, ptr %78, i32 0, i32 8
  %80 = load i32, ptr %5, align 4, !tbaa !11
  %81 = sext i32 %80 to i64
  %82 = getelementptr inbounds [4 x %struct.Borders], ptr %79, i64 0, i64 %81
  %83 = getelementptr inbounds nuw %struct.Borders, ptr %82, i32 0, i32 0
  %84 = load i32, ptr %83, align 4, !tbaa !60
  %85 = sext i32 %84 to i64
  call void @llvm.memset.p0.i64(ptr align 1 %59, i8 %77, i64 %85, i1 false)
  %86 = load ptr, ptr %7, align 8, !tbaa !9
  %87 = load i32, ptr %6, align 4, !tbaa !11
  %88 = sext i32 %87 to i64
  %89 = load i64, ptr %8, align 8, !tbaa !70
  %90 = mul nsw i64 %88, %89
  %91 = getelementptr inbounds i8, ptr %86, i64 %90
  %92 = load ptr, ptr %3, align 8, !tbaa !37
  %93 = getelementptr inbounds nuw %struct.FillBordersContext, ptr %92, i32 0, i32 9
  %94 = load i32, ptr %5, align 4, !tbaa !11
  %95 = sext i32 %94 to i64
  %96 = getelementptr inbounds [4 x i32], ptr %93, i64 0, i64 %95
  %97 = load i32, ptr %96, align 4, !tbaa !11
  %98 = sext i32 %97 to i64
  %99 = getelementptr inbounds i8, ptr %91, i64 %98
  %100 = load ptr, ptr %3, align 8, !tbaa !37
  %101 = getelementptr inbounds nuw %struct.FillBordersContext, ptr %100, i32 0, i32 8
  %102 = load i32, ptr %5, align 4, !tbaa !11
  %103 = sext i32 %102 to i64
  %104 = getelementptr inbounds [4 x %struct.Borders], ptr %101, i64 0, i64 %103
  %105 = getelementptr inbounds nuw %struct.Borders, ptr %104, i32 0, i32 1
  %106 = load i32, ptr %105, align 4, !tbaa !62
  %107 = sext i32 %106 to i64
  %108 = sub i64 0, %107
  %109 = getelementptr inbounds i8, ptr %99, i64 %108
  %110 = load ptr, ptr %7, align 8, !tbaa !9
  %111 = load i32, ptr %6, align 4, !tbaa !11
  %112 = sext i32 %111 to i64
  %113 = load i64, ptr %8, align 8, !tbaa !70
  %114 = mul nsw i64 %112, %113
  %115 = getelementptr inbounds i8, ptr %110, i64 %114
  %116 = load ptr, ptr %3, align 8, !tbaa !37
  %117 = getelementptr inbounds nuw %struct.FillBordersContext, ptr %116, i32 0, i32 9
  %118 = load i32, ptr %5, align 4, !tbaa !11
  %119 = sext i32 %118 to i64
  %120 = getelementptr inbounds [4 x i32], ptr %117, i64 0, i64 %119
  %121 = load i32, ptr %120, align 4, !tbaa !11
  %122 = sext i32 %121 to i64
  %123 = getelementptr inbounds i8, ptr %115, i64 %122
  %124 = load ptr, ptr %3, align 8, !tbaa !37
  %125 = getelementptr inbounds nuw %struct.FillBordersContext, ptr %124, i32 0, i32 8
  %126 = load i32, ptr %5, align 4, !tbaa !11
  %127 = sext i32 %126 to i64
  %128 = getelementptr inbounds [4 x %struct.Borders], ptr %125, i64 0, i64 %127
  %129 = getelementptr inbounds nuw %struct.Borders, ptr %128, i32 0, i32 1
  %130 = load i32, ptr %129, align 4, !tbaa !62
  %131 = sext i32 %130 to i64
  %132 = sub i64 0, %131
  %133 = getelementptr inbounds i8, ptr %123, i64 %132
  %134 = getelementptr inbounds i8, ptr %133, i64 -1
  %135 = load i8, ptr %134, align 1, !tbaa !66
  %136 = zext i8 %135 to i32
  %137 = trunc i32 %136 to i8
  %138 = load ptr, ptr %3, align 8, !tbaa !37
  %139 = getelementptr inbounds nuw %struct.FillBordersContext, ptr %138, i32 0, i32 8
  %140 = load i32, ptr %5, align 4, !tbaa !11
  %141 = sext i32 %140 to i64
  %142 = getelementptr inbounds [4 x %struct.Borders], ptr %139, i64 0, i64 %141
  %143 = getelementptr inbounds nuw %struct.Borders, ptr %142, i32 0, i32 1
  %144 = load i32, ptr %143, align 4, !tbaa !62
  %145 = sext i32 %144 to i64
  call void @llvm.memset.p0.i64(ptr align 1 %109, i8 %137, i64 %145, i1 false)
  br label %146

146:                                              ; preds = %53
  %147 = load i32, ptr %6, align 4, !tbaa !11
  %148 = add nsw i32 %147, 1
  store i32 %148, ptr %6, align 4, !tbaa !11
  br label %36, !llvm.loop !71

149:                                              ; preds = %36
  store i32 0, ptr %6, align 4, !tbaa !11
  br label %150

150:                                              ; preds = %186, %149
  %151 = load i32, ptr %6, align 4, !tbaa !11
  %152 = load ptr, ptr %3, align 8, !tbaa !37
  %153 = getelementptr inbounds nuw %struct.FillBordersContext, ptr %152, i32 0, i32 8
  %154 = load i32, ptr %5, align 4, !tbaa !11
  %155 = sext i32 %154 to i64
  %156 = getelementptr inbounds [4 x %struct.Borders], ptr %153, i64 0, i64 %155
  %157 = getelementptr inbounds nuw %struct.Borders, ptr %156, i32 0, i32 2
  %158 = load i32, ptr %157, align 4, !tbaa !63
  %159 = icmp slt i32 %151, %158
  br i1 %159, label %160, label %189

160:                                              ; preds = %150
  %161 = load ptr, ptr %7, align 8, !tbaa !9
  %162 = load i32, ptr %6, align 4, !tbaa !11
  %163 = sext i32 %162 to i64
  %164 = load i64, ptr %8, align 8, !tbaa !70
  %165 = mul nsw i64 %163, %164
  %166 = getelementptr inbounds i8, ptr %161, i64 %165
  %167 = load ptr, ptr %7, align 8, !tbaa !9
  %168 = load ptr, ptr %3, align 8, !tbaa !37
  %169 = getelementptr inbounds nuw %struct.FillBordersContext, ptr %168, i32 0, i32 8
  %170 = load i32, ptr %5, align 4, !tbaa !11
  %171 = sext i32 %170 to i64
  %172 = getelementptr inbounds [4 x %struct.Borders], ptr %169, i64 0, i64 %171
  %173 = getelementptr inbounds nuw %struct.Borders, ptr %172, i32 0, i32 2
  %174 = load i32, ptr %173, align 4, !tbaa !63
  %175 = sext i32 %174 to i64
  %176 = load i64, ptr %8, align 8, !tbaa !70
  %177 = mul nsw i64 %175, %176
  %178 = getelementptr inbounds i8, ptr %167, i64 %177
  %179 = load ptr, ptr %3, align 8, !tbaa !37
  %180 = getelementptr inbounds nuw %struct.FillBordersContext, ptr %179, i32 0, i32 9
  %181 = load i32, ptr %5, align 4, !tbaa !11
  %182 = sext i32 %181 to i64
  %183 = getelementptr inbounds [4 x i32], ptr %180, i64 0, i64 %182
  %184 = load i32, ptr %183, align 4, !tbaa !11
  %185 = sext i32 %184 to i64
  call void @llvm.memcpy.p0.p0.i64(ptr align 1 %166, ptr align 1 %178, i64 %185, i1 false)
  br label %186

186:                                              ; preds = %160
  %187 = load i32, ptr %6, align 4, !tbaa !11
  %188 = add nsw i32 %187, 1
  store i32 %188, ptr %6, align 4, !tbaa !11
  br label %150, !llvm.loop !72

189:                                              ; preds = %150
  %190 = load ptr, ptr %3, align 8, !tbaa !37
  %191 = getelementptr inbounds nuw %struct.FillBordersContext, ptr %190, i32 0, i32 10
  %192 = load i32, ptr %5, align 4, !tbaa !11
  %193 = sext i32 %192 to i64
  %194 = getelementptr inbounds [4 x i32], ptr %191, i64 0, i64 %193
  %195 = load i32, ptr %194, align 4, !tbaa !11
  %196 = load ptr, ptr %3, align 8, !tbaa !37
  %197 = getelementptr inbounds nuw %struct.FillBordersContext, ptr %196, i32 0, i32 8
  %198 = load i32, ptr %5, align 4, !tbaa !11
  %199 = sext i32 %198 to i64
  %200 = getelementptr inbounds [4 x %struct.Borders], ptr %197, i64 0, i64 %199
  %201 = getelementptr inbounds nuw %struct.Borders, ptr %200, i32 0, i32 3
  %202 = load i32, ptr %201, align 4, !tbaa !64
  %203 = sub nsw i32 %195, %202
  store i32 %203, ptr %6, align 4, !tbaa !11
  br label %204

204:                                              ; preds = %247, %189
  %205 = load i32, ptr %6, align 4, !tbaa !11
  %206 = load ptr, ptr %3, align 8, !tbaa !37
  %207 = getelementptr inbounds nuw %struct.FillBordersContext, ptr %206, i32 0, i32 10
  %208 = load i32, ptr %5, align 4, !tbaa !11
  %209 = sext i32 %208 to i64
  %210 = getelementptr inbounds [4 x i32], ptr %207, i64 0, i64 %209
  %211 = load i32, ptr %210, align 4, !tbaa !11
  %212 = icmp slt i32 %205, %211
  br i1 %212, label %213, label %250

213:                                              ; preds = %204
  %214 = load ptr, ptr %7, align 8, !tbaa !9
  %215 = load i32, ptr %6, align 4, !tbaa !11
  %216 = sext i32 %215 to i64
  %217 = load i64, ptr %8, align 8, !tbaa !70
  %218 = mul nsw i64 %216, %217
  %219 = getelementptr inbounds i8, ptr %214, i64 %218
  %220 = load ptr, ptr %7, align 8, !tbaa !9
  %221 = load ptr, ptr %3, align 8, !tbaa !37
  %222 = getelementptr inbounds nuw %struct.FillBordersContext, ptr %221, i32 0, i32 10
  %223 = load i32, ptr %5, align 4, !tbaa !11
  %224 = sext i32 %223 to i64
  %225 = getelementptr inbounds [4 x i32], ptr %222, i64 0, i64 %224
  %226 = load i32, ptr %225, align 4, !tbaa !11
  %227 = load ptr, ptr %3, align 8, !tbaa !37
  %228 = getelementptr inbounds nuw %struct.FillBordersContext, ptr %227, i32 0, i32 8
  %229 = load i32, ptr %5, align 4, !tbaa !11
  %230 = sext i32 %229 to i64
  %231 = getelementptr inbounds [4 x %struct.Borders], ptr %228, i64 0, i64 %230
  %232 = getelementptr inbounds nuw %struct.Borders, ptr %231, i32 0, i32 3
  %233 = load i32, ptr %232, align 4, !tbaa !64
  %234 = sub nsw i32 %226, %233
  %235 = sub nsw i32 %234, 1
  %236 = sext i32 %235 to i64
  %237 = load i64, ptr %8, align 8, !tbaa !70
  %238 = mul nsw i64 %236, %237
  %239 = getelementptr inbounds i8, ptr %220, i64 %238
  %240 = load ptr, ptr %3, align 8, !tbaa !37
  %241 = getelementptr inbounds nuw %struct.FillBordersContext, ptr %240, i32 0, i32 9
  %242 = load i32, ptr %5, align 4, !tbaa !11
  %243 = sext i32 %242 to i64
  %244 = getelementptr inbounds [4 x i32], ptr %241, i64 0, i64 %243
  %245 = load i32, ptr %244, align 4, !tbaa !11
  %246 = sext i32 %245 to i64
  call void @llvm.memcpy.p0.p0.i64(ptr align 1 %219, ptr align 1 %239, i64 %246, i1 false)
  br label %247

247:                                              ; preds = %213
  %248 = load i32, ptr %6, align 4, !tbaa !11
  %249 = add nsw i32 %248, 1
  store i32 %249, ptr %6, align 4, !tbaa !11
  br label %204, !llvm.loop !73

250:                                              ; preds = %204
  call void @llvm.lifetime.end.p0(i64 8, ptr %8) #8
  call void @llvm.lifetime.end.p0(i64 8, ptr %7) #8
  br label %251

251:                                              ; preds = %250
  %252 = load i32, ptr %5, align 4, !tbaa !11
  %253 = add nsw i32 %252, 1
  store i32 %253, ptr %5, align 4, !tbaa !11
  br label %9, !llvm.loop !74

254:                                              ; preds = %9
  call void @llvm.lifetime.end.p0(i64 4, ptr %6) #8
  call void @llvm.lifetime.end.p0(i64 4, ptr %5) #8
  ret void
}