; Function Attrs: nofree norecurse nosync nounwind memory(readwrite, inaccessiblemem: none) uwtable
define internal void @smear_borders8(ptr noundef readonly captures(none) %0, ptr noundef readonly captures(none) %1) #3 {
  %3 = getelementptr inbounds nuw i8, ptr %0, i64 28
  %4 = load i32, ptr %3, align 4, !tbaa !39
  %5 = icmp sgt i32 %4, 0
  br i1 %5, label %.lr.ph85, label %._crit_edge86

.lr.ph85:                                         ; preds = %2
  %6 = getelementptr inbounds nuw i8, ptr %1, i64 64
  %7 = getelementptr inbounds nuw i8, ptr %0, i64 36
  %8 = getelementptr inbounds nuw i8, ptr %0, i64 116
  %9 = getelementptr inbounds nuw i8, ptr %0, i64 100
  br label %10

10:                                               ; preds = %.lr.ph85, %._crit_edge82
  %indvars.iv94 = phi i64 [ 0, %.lr.ph85 ], [ %indvars.iv.next95, %._crit_edge82 ]
  %11 = getelementptr inbounds nuw [8 x ptr], ptr %1, i64 0, i64 %indvars.iv94
  %12 = load ptr, ptr %11, align 8, !tbaa !62
  %13 = getelementptr inbounds nuw [8 x i32], ptr %6, i64 0, i64 %indvars.iv94
  %14 = load i32, ptr %13, align 4, !tbaa !45
  %15 = sext i32 %14 to i64
  %16 = getelementptr inbounds nuw [4 x %struct.Borders], ptr %7, i64 0, i64 %indvars.iv94
  %17 = getelementptr inbounds nuw i8, ptr %16, i64 8
  %18 = load i32, ptr %17, align 4, !tbaa !55
  %19 = getelementptr inbounds nuw [4 x i32], ptr %8, i64 0, i64 %indvars.iv94
  %20 = getelementptr inbounds nuw i8, ptr %16, i64 12
  %21 = load i32, ptr %19, align 4, !tbaa !45
  %22 = load i32, ptr %20, align 4, !tbaa !56
  %23 = sub nsw i32 %21, %22
  %24 = icmp slt i32 %18, %23
  br i1 %24, label %.lr.ph, label %.preheader

.lr.ph:                                           ; preds = %10
  %25 = getelementptr inbounds nuw [4 x i32], ptr %9, i64 0, i64 %indvars.iv94
  %26 = getelementptr inbounds nuw i8, ptr %16, i64 4
  %27 = sext i32 %18 to i64
  br label %32

.preheader.loopexit:                              ; preds = %32
  %.pre = load i32, ptr %17, align 4, !tbaa !55
  br label %.preheader

.preheader:                                       ; preds = %.preheader.loopexit, %10
  %28 = phi i32 [ %49, %.preheader.loopexit ], [ %22, %10 ]
  %29 = phi i32 [ %.pre, %.preheader.loopexit ], [ %18, %10 ]
  %30 = icmp sgt i32 %29, 0
  br i1 %30, label %.lr.ph78, label %._crit_edge

.lr.ph78:                                         ; preds = %.preheader
  %31 = getelementptr inbounds nuw [4 x i32], ptr %9, i64 0, i64 %indvars.iv94
  br label %53

32:                                               ; preds = %.lr.ph, %32
  %indvars.iv = phi i64 [ %27, %.lr.ph ], [ %indvars.iv.next, %32 ]
  %33 = mul nsw i64 %indvars.iv, %15
  %34 = getelementptr inbounds i8, ptr %12, i64 %33
  %35 = load i32, ptr %16, align 4, !tbaa !52
  %36 = sext i32 %35 to i64
  %37 = getelementptr inbounds i8, ptr %34, i64 %36
  %38 = load i8, ptr %37, align 1, !tbaa !58
  tail call void @llvm.memset.p0.i64(ptr align 1 %34, i8 %38, i64 %36, i1 false)
  %39 = load i32, ptr %25, align 4, !tbaa !45
  %40 = sext i32 %39 to i64
  %41 = getelementptr inbounds i8, ptr %34, i64 %40
  %42 = load i32, ptr %26, align 4, !tbaa !54
  %43 = sext i32 %42 to i64
  %44 = sub nsw i64 0, %43
  %45 = getelementptr inbounds i8, ptr %41, i64 %44
  %46 = getelementptr inbounds i8, ptr %45, i64 -1
  %47 = load i8, ptr %46, align 1, !tbaa !58
  tail call void @llvm.memset.p0.i64(ptr align 1 %45, i8 %47, i64 %43, i1 false)
  %indvars.iv.next = add nsw i64 %indvars.iv, 1
  %48 = load i32, ptr %19, align 4, !tbaa !45
  %49 = load i32, ptr %20, align 4, !tbaa !56
  %50 = sub nsw i32 %48, %49
  %51 = sext i32 %50 to i64
  %52 = icmp slt i64 %indvars.iv.next, %51
  br i1 %52, label %32, label %.preheader.loopexit, !llvm.loop !63

53:                                               ; preds = %.lr.ph78, %53
  %indvars.iv88 = phi i64 [ 0, %.lr.ph78 ], [ %indvars.iv.next89, %53 ]
  %54 = phi i32 [ %29, %.lr.ph78 ], [ %62, %53 ]
  %55 = mul nsw i64 %indvars.iv88, %15
  %56 = getelementptr inbounds i8, ptr %12, i64 %55
  %57 = sext i32 %54 to i64
  %58 = mul nsw i64 %57, %15
  %59 = getelementptr inbounds i8, ptr %12, i64 %58
  %60 = load i32, ptr %31, align 4, !tbaa !45
  %61 = sext i32 %60 to i64
  tail call void @llvm.memcpy.p0.p0.i64(ptr align 1 %56, ptr align 1 %59, i64 %61, i1 false)
  %indvars.iv.next89 = add nuw nsw i64 %indvars.iv88, 1
  %62 = load i32, ptr %17, align 4, !tbaa !55
  %63 = sext i32 %62 to i64
  %64 = icmp slt i64 %indvars.iv.next89, %63
  br i1 %64, label %53, label %._crit_edge.loopexit, !llvm.loop !64

._crit_edge.loopexit:                             ; preds = %53
  %.pre97 = load i32, ptr %20, align 4, !tbaa !56
  br label %._crit_edge

._crit_edge:                                      ; preds = %._crit_edge.loopexit, %.preheader
  %65 = phi i32 [ %.pre97, %._crit_edge.loopexit ], [ %28, %.preheader ]
  %66 = icmp sgt i32 %65, 0
  br i1 %66, label %.lr.ph81, label %._crit_edge82

.lr.ph81:                                         ; preds = %._crit_edge
  %67 = load i32, ptr %19, align 4, !tbaa !45
  %68 = sub i32 %67, %65
  %69 = getelementptr inbounds nuw [4 x i32], ptr %9, i64 0, i64 %indvars.iv94
  %70 = sext i32 %68 to i64
  br label %71

71:                                               ; preds = %.lr.ph81, %71
  %indvars.iv91 = phi i64 [ %70, %.lr.ph81 ], [ %indvars.iv.next92, %71 ]
  %72 = phi i32 [ %67, %.lr.ph81 ], [ %83, %71 ]
  %73 = mul nsw i64 %indvars.iv91, %15
  %74 = getelementptr inbounds i8, ptr %12, i64 %73
  %75 = load i32, ptr %20, align 4, !tbaa !56
  %76 = xor i32 %75, -1
  %77 = add i32 %72, %76
  %78 = sext i32 %77 to i64
  %79 = mul nsw i64 %78, %15
  %80 = getelementptr inbounds i8, ptr %12, i64 %79
  %81 = load i32, ptr %69, align 4, !tbaa !45
  %82 = sext i32 %81 to i64
  tail call void @llvm.memcpy.p0.p0.i64(ptr align 1 %74, ptr align 1 %80, i64 %82, i1 false)
  %indvars.iv.next92 = add nsw i64 %indvars.iv91, 1
  %83 = load i32, ptr %19, align 4, !tbaa !45
  %84 = sext i32 %83 to i64
  %85 = icmp slt i64 %indvars.iv.next92, %84
  br i1 %85, label %71, label %._crit_edge82, !llvm.loop !65

._crit_edge82:                                    ; preds = %71, %._crit_edge
  %indvars.iv.next95 = add nuw nsw i64 %indvars.iv94, 1
  %86 = load i32, ptr %3, align 4, !tbaa !39
  %87 = sext i32 %86 to i64
  %88 = icmp slt i64 %indvars.iv.next95, %87
  br i1 %88, label %10, label %._crit_edge86, !llvm.loop !66

._crit_edge86:                                    ; preds = %._crit_edge82, %2
  ret void
}